; Function Attrs: mustprogress nofree norecurse nosync nounwind memory(argmem: readwrite, inaccessiblemem: readwrite) uwtable
define hidden noundef zeroext i1 @_ZN3ue28overlapsERKNS_9CharReachES2_(ptr noundef nonnull readonly align 8 captures(none) dereferenceable(32) %0, ptr noundef nonnull readonly align 8 captures(none) dereferenceable(32) %1) local_unnamed_addr #4 {
  %3 = alloca %"class.ue2::CharReach", align 8
  call void @llvm.lifetime.start.p0(i64 32, ptr nonnull %3) #17
  tail call void @llvm.experimental.noalias.scope.decl(metadata !10)
  call void @llvm.memcpy.p0.p0.i64(ptr noundef nonnull align 8 dereferenceable(32) %3, ptr noundef nonnull align 8 dereferenceable(32) %0, i64 32, i1 false)
  %4 = load i64, ptr %1, align 8, !noalias !10
  %5 = load i64, ptr %3, align 8, !alias.scope !10
  %6 = and i64 %5, %4
  store i64 %6, ptr %3, align 8, !alias.scope !10
  %7 = getelementptr inbounds nuw i8, ptr %1, i64 8
  %8 = load i64, ptr %7, align 8, !noalias !10
  %9 = getelementptr inbounds nuw i8, ptr %3, i64 8
  %10 = load i64, ptr %9, align 8, !alias.scope !10
  %11 = and i64 %10, %8
  store i64 %11, ptr %9, align 8, !alias.scope !10
  %12 = getelementptr inbounds nuw i8, ptr %1, i64 16
  %13 = load i64, ptr %12, align 8, !noalias !10
  %14 = getelementptr inbounds nuw i8, ptr %3, i64 16
  %15 = load i64, ptr %14, align 8, !alias.scope !10
  %16 = and i64 %15, %13
  store i64 %16, ptr %14, align 8, !alias.scope !10
  %17 = getelementptr inbounds nuw i8, ptr %1, i64 24
  %18 = load i64, ptr %17, align 8, !noalias !10
  %19 = getelementptr inbounds nuw i8, ptr %3, i64 24
  %20 = load i64, ptr %19, align 8, !alias.scope !10
  %21 = and i64 %20, %18
  store i64 %21, ptr %19, align 8, !alias.scope !10
  br label %22

22:                                               ; preds = %22, %2
  %.012.idx14.i.i.i = phi i64 [ 0, %2 ], [ %.012.add.i.i.i, %22 ]
  %.012.ptr.i.i.i = getelementptr inbounds nuw i8, ptr %3, i64 %.012.idx14.i.i.i
  %23 = load i64, ptr %.012.ptr.i.i.i, align 8
  %.not13.i.i.i = icmp eq i64 %23, 0
  %.012.add.i.i.i = add nuw nsw i64 %.012.idx14.i.i.i, 8
  %.not.i.i.i = icmp ne i64 %.012.add.i.i.i, 32
  %or.cond.not.i.i.i = select i1 %.not13.i.i.i, i1 %.not.i.i.i, i1 false
  br i1 %or.cond.not.i.i.i, label %22, label %_ZNK3ue29CharReach3anyEv.exit

_ZNK3ue29CharReach3anyEv.exit:                    ; preds = %22
  %24 = xor i1 %.not13.i.i.i, true
  call void @llvm.lifetime.end.p0(i64 32, ptr nonnull %3) #17
  ret i1 %24
}